target datalayout = "e-m:e-p270:32:32-p271:32:32-p272:64:64-i64:64-i128:128-f80:128-n8:16:32:64-S128"
target triple = "x86_64-pc-linux-gnu"

%struct.PROV_XORSIG_CTX = type { ptr, ptr, ptr, i8, [50 x i8], ptr, i64, ptr, ptr, i32 }

; Function Attrs: nounwind uwtable
define internal i32 @xor_sig_set_ctx_md_params(ptr noundef %0, ptr noundef %1) #0 {
  %3 = alloca i32, align 4
  %4 = alloca ptr, align 8
  %5 = alloca ptr, align 8
  %6 = alloca ptr, align 8
  %7 = alloca i32, align 4
  store ptr %0, ptr %4, align 8, !tbaa !13
  store ptr %1, ptr %5, align 8, !tbaa !43
  call void @llvm.lifetime.start.p0(i64 8, ptr %6) #8
  %8 = load ptr, ptr %4, align 8, !tbaa !13
  store ptr %8, ptr %6, align 8, !tbaa !13
  %9 = load ptr, ptr %6, align 8, !tbaa !13
  %10 = getelementptr inbounds nuw %struct.PROV_XORSIG_CTX, ptr %9, i32 0, i32 8
  %11 = load ptr, ptr %10, align 8, !tbaa !147
  %12 = icmp eq ptr %11, null
  br i1 %12, label %13, label %14

13:                                               ; preds = %2
  store i32 0, ptr %3, align 4
  store i32 1, ptr %7, align 4
  br label %20

14:                                               ; preds = %2
  %15 = load ptr, ptr %6, align 8, !tbaa !13
  %16 = getelementptr inbounds nuw %struct.PROV_XORSIG_CTX, ptr %15, i32 0, i32 8
  %17 = load ptr, ptr %16, align 8, !tbaa !147
  %18 = load ptr, ptr %5, align 8, !tbaa !43
  %19 = call i32 @EVP_MD_CTX_set_params(ptr noundef %17, ptr noundef %18)
  store i32 %19, ptr %3, align 4
  store i32 1, ptr %7, align 4
  br label %20

20:                                               ; preds = %14, %13
  call void @llvm.lifetime.end.p0(i64 8, ptr %6) #8
  %21 = load i32, ptr %3, align 4
  ret i32 %21
}